target datalayout = "e-m:e-p270:32:32-p271:32:32-p272:64:64-i64:64-i128:128-f80:128-n8:16:32:64-S128"
target triple = "x86_64-pc-linux-gnu"

%struct.RsaKey = type { %struct.sp_int, %struct.sp_int, %struct.sp_int, %struct.sp_int, %struct.sp_int, %struct.sp_int, %struct.sp_int, %struct.sp_int, ptr, ptr, i32, i32, i32, ptr, i8 }
%struct.sp_int = type { i16, i16, [129 x i64] }
%struct.ecc_key = type { i32, i32, i32, i32, ptr, ptr, %struct.ecc_point, [1 x %struct.sp_int], ptr }
%struct.ecc_point = type { [1 x %struct.sp_int], [1 x %struct.sp_int], [1 x %struct.sp_int], i8 }

; Function Attrs: nounwind uwtable
define i32 @wc_RsaPrivateKeyDecode(ptr noundef %0, ptr noundef %1, ptr noundef %2, i32 noundef %3) #0 {
  %5 = alloca i32, align 4
  %6 = alloca ptr, align 8
  %7 = alloca ptr, align 8
  %8 = alloca ptr, align 8
  %9 = alloca i32, align 4
  store ptr %0, ptr %6, align 8, !tbaa !7
  store ptr %1, ptr %7, align 8, !tbaa !18
  store ptr %2, ptr %8, align 8, !tbaa !62
  store i32 %3, ptr %9, align 4, !tbaa !3
  %10 = load ptr, ptr %8, align 8, !tbaa !62
  %11 = icmp eq ptr %10, null
  br i1 %11, label %12, label %13

12:                                               ; preds = %4
  store i32 -173, ptr %5, align 4
  br label %19

13:                                               ; preds = %4
  %14 = load ptr, ptr %6, align 8, !tbaa !7
  %15 = load ptr, ptr %7, align 8, !tbaa !18
  %16 = load ptr, ptr %8, align 8, !tbaa !62
  %17 = load i32, ptr %9, align 4, !tbaa !3
  %18 = call i32 @_RsaPrivateKeyDecode(ptr noundef %14, ptr noundef %15, ptr noundef %16, ptr noundef null, i32 noundef %17)
  store i32 %18, ptr %5, align 4
  br label %19

19:                                               ; preds = %13, %12
  %20 = load i32, ptr %5, align 4
  ret i32 %20
}

; Function Attrs: nounwind uwtable
define i32 @wc_CheckPrivateKey(ptr noundef %0, i32 noundef %1, ptr noundef %2, i32 noundef %3, i32 noundef %4, ptr noundef %5) #0 {
  %7 = alloca i32, align 4
  %8 = alloca ptr, align 8
  %9 = alloca i32, align 4
  %10 = alloca ptr, align 8
  %11 = alloca i32, align 4
  %12 = alloca i32, align 4
  %13 = alloca ptr, align 8
  %14 = alloca i32, align 4
  %15 = alloca i32, align 4
  %16 = alloca [1 x %struct.RsaKey], align 16
  %17 = alloca [1 x %struct.RsaKey], align 16
  %18 = alloca i32, align 4
  %19 = alloca [1 x %struct.ecc_key], align 16
  %20 = alloca [66 x i8], align 16
  %21 = alloca i32, align 4
  %22 = alloca i32, align 4
  store ptr %0, ptr %8, align 8, !tbaa !7
  store i32 %1, ptr %9, align 4, !tbaa !3
  store ptr %2, ptr %10, align 8, !tbaa !7
  store i32 %3, ptr %11, align 4, !tbaa !3
  store i32 %4, ptr %12, align 4, !tbaa !3
  store ptr %5, ptr %13, align 8, !tbaa !64
  call void @llvm.lifetime.start.p0(i64 4, ptr %14) #9
  %23 = load ptr, ptr %8, align 8, !tbaa !7
  %24 = icmp eq ptr %23, null
  br i1 %24, label %28, label %25

25:                                               ; preds = %6
  %26 = load ptr, ptr %10, align 8, !tbaa !7
  %27 = icmp eq ptr %26, null
  br i1 %27, label %28, label %29

28:                                               ; preds = %25, %6
  store i32 -173, ptr %7, align 4
  store i32 1, ptr %15, align 4
  br label %157

29:                                               ; preds = %25
  %30 = load i32, ptr %12, align 4, !tbaa !3
  %31 = icmp eq i32 %30, 645
  br i1 %31, label %35, label %32

32:                                               ; preds = %29
  %33 = load i32, ptr %12, align 4, !tbaa !3
  %34 = icmp eq i32 %33, 654
  br i1 %34, label %35, label %93

35:                                               ; preds = %32, %29
  call void @llvm.lifetime.start.p0(i64 8368, ptr %16) #9
  call void @llvm.lifetime.start.p0(i64 8368, ptr %17) #9
  call void @llvm.lifetime.start.p0(i64 4, ptr %18) #9
  store i32 0, ptr %18, align 4, !tbaa !3
  %36 = getelementptr inbounds [1 x %struct.RsaKey], ptr %16, i64 0, i64 0
  %37 = load ptr, ptr %13, align 8, !tbaa !64
  %38 = call i32 @wc_InitRsaKey(ptr noundef %36, ptr noundef %37)
  store i32 %38, ptr %14, align 4, !tbaa !3
  %39 = icmp slt i32 %38, 0
  br i1 %39, label %40, label %42

40:                                               ; preds = %35
  %41 = load i32, ptr %14, align 4, !tbaa !3
  store i32 %41, ptr %7, align 4
  store i32 1, ptr %15, align 4
  br label %90

42:                                               ; preds = %35
  %43 = getelementptr inbounds [1 x %struct.RsaKey], ptr %17, i64 0, i64 0
  %44 = load ptr, ptr %13, align 8, !tbaa !64
  %45 = call i32 @wc_InitRsaKey(ptr noundef %43, ptr noundef %44)
  store i32 %45, ptr %14, align 4, !tbaa !3
  %46 = icmp slt i32 %45, 0
  br i1 %46, label %47, label %51

47:                                               ; preds = %42
  %48 = getelementptr inbounds [1 x %struct.RsaKey], ptr %16, i64 0, i64 0
  %49 = call i32 @wc_FreeRsaKey(ptr noundef %48)
  %50 = load i32, ptr %14, align 4, !tbaa !3
  store i32 %50, ptr %7, align 4
  store i32 1, ptr %15, align 4
  br label %90

51:                                               ; preds = %42
  %52 = load ptr, ptr %8, align 8, !tbaa !7
  %53 = getelementptr inbounds [1 x %struct.RsaKey], ptr %16, i64 0, i64 0
  %54 = load i32, ptr %9, align 4, !tbaa !3
  %55 = call i32 @wc_RsaPrivateKeyDecode(ptr noundef %52, ptr noundef %18, ptr noundef %53, i32 noundef %54)
  store i32 %55, ptr %14, align 4, !tbaa !3
  %56 = icmp eq i32 %55, 0
  br i1 %56, label %57, label %85

57:                                               ; preds = %51
  br label %58

58:                                               ; preds = %57
  br label %59

59:                                               ; preds = %58
  br label %60

60:                                               ; preds = %59
  store i32 0, ptr %18, align 4, !tbaa !3
  %61 = load ptr, ptr %10, align 8, !tbaa !7
  %62 = getelementptr inbounds [1 x %struct.RsaKey], ptr %17, i64 0, i64 0
  %63 = load i32, ptr %11, align 4, !tbaa !3
  %64 = call i32 @wc_RsaPublicKeyDecode(ptr noundef %61, ptr noundef %18, ptr noundef %62, i32 noundef %63)
  store i32 %64, ptr %14, align 4, !tbaa !3
  %65 = icmp eq i32 %64, 0
  br i1 %65, label %66, label %83

66:                                               ; preds = %60
  %67 = getelementptr inbounds [1 x %struct.RsaKey], ptr %16, i64 0, i64 0
  %68 = getelementptr inbounds nuw %struct.RsaKey, ptr %67, i32 0, i32 0
  %69 = getelementptr inbounds [1 x %struct.RsaKey], ptr %17, i64 0, i64 0
  %70 = getelementptr inbounds nuw %struct.RsaKey, ptr %69, i32 0, i32 0
  %71 = call i32 @sp_cmp(ptr noundef %68, ptr noundef %70)
  %72 = icmp ne i32 %71, 0
  br i1 %72, label %80, label %73

73:                                               ; preds = %66
  %74 = getelementptr inbounds [1 x %struct.RsaKey], ptr %16, i64 0, i64 0
  %75 = getelementptr inbounds nuw %struct.RsaKey, ptr %74, i32 0, i32 1
  %76 = getelementptr inbounds [1 x %struct.RsaKey], ptr %17, i64 0, i64 0
  %77 = getelementptr inbounds nuw %struct.RsaKey, ptr %76, i32 0, i32 1
  %78 = call i32 @sp_cmp(ptr noundef %75, ptr noundef %77)
  %79 = icmp ne i32 %78, 0
  br i1 %79, label %80, label %81

80:                                               ; preds = %73, %66
  store i32 -120, ptr %14, align 4, !tbaa !3
  br label %82

81:                                               ; preds = %73
  store i32 1, ptr %14, align 4, !tbaa !3
  br label %82

82:                                               ; preds = %81, %80
  br label %84

83:                                               ; preds = %60
  br label %84

84:                                               ; preds = %83, %82
  br label %85

85:                                               ; preds = %84, %51
  %86 = getelementptr inbounds [1 x %struct.RsaKey], ptr %17, i64 0, i64 0
  %87 = call i32 @wc_FreeRsaKey(ptr noundef %86)
  %88 = getelementptr inbounds [1 x %struct.RsaKey], ptr %16, i64 0, i64 0
  %89 = call i32 @wc_FreeRsaKey(ptr noundef %88)
  store i32 0, ptr %15, align 4
  br label %90

90:                                               ; preds = %85, %47, %40
  call void @llvm.lifetime.end.p0(i64 4, ptr %18) #9
  call void @llvm.lifetime.end.p0(i64 8368, ptr %17) #9
  call void @llvm.lifetime.end.p0(i64 8368, ptr %16) #9
  %91 = load i32, ptr %15, align 4
  switch i32 %91, label %157 [
    i32 0, label %92
  ]

92:                                               ; preds = %90
  br label %155

93:                                               ; preds = %32
  %94 = load i32, ptr %12, align 4, !tbaa !3
  %95 = icmp eq i32 %94, 518
  br i1 %95, label %96, label %153

96:                                               ; preds = %93
  call void @llvm.lifetime.start.p0(i64 4208, ptr %19) #9
  call void @llvm.lifetime.start.p0(i64 66, ptr %20) #9
  call void @llvm.lifetime.start.p0(i64 4, ptr %21) #9
  store i32 66, ptr %21, align 4, !tbaa !3
  call void @llvm.lifetime.start.p0(i64 4, ptr %22) #9
  store i32 0, ptr %22, align 4, !tbaa !3
  %97 = getelementptr inbounds [1 x %struct.ecc_key], ptr %19, i64 0, i64 0
  %98 = load ptr, ptr %13, align 8, !tbaa !64
  %99 = call i32 @wc_ecc_init_ex(ptr noundef %97, ptr noundef %98, i32 noundef -2)
  store i32 %99, ptr %14, align 4, !tbaa !3
  %100 = icmp slt i32 %99, 0
  br i1 %100, label %101, label %103

101:                                              ; preds = %96
  %102 = load i32, ptr %14, align 4, !tbaa !3
  store i32 %102, ptr %7, align 4
  store i32 1, ptr %15, align 4
  br label %150

103:                                              ; preds = %96
  %104 = load ptr, ptr %8, align 8, !tbaa !7
  %105 = getelementptr inbounds [1 x %struct.ecc_key], ptr %19, i64 0, i64 0
  %106 = load i32, ptr %9, align 4, !tbaa !3
  %107 = call i32 @wc_EccPrivateKeyDecode(ptr noundef %104, ptr noundef %22, ptr noundef %105, i32 noundef %106)
  store i32 %107, ptr %14, align 4, !tbaa !3
  %108 = icmp eq i32 %107, 0
  br i1 %108, label %109, label %146

109:                                              ; preds = %103
  br label %110

110:                                              ; preds = %109
  br label %111

111:                                              ; preds = %110
  br label %112

112:                                              ; preds = %111
  %113 = getelementptr inbounds [1 x %struct.ecc_key], ptr %19, i64 0, i64 0
  %114 = getelementptr inbounds [66 x i8], ptr %20, i64 0, i64 0
  %115 = call i32 @wc_ecc_export_private_only(ptr noundef %113, ptr noundef %114, ptr noundef %21)
  store i32 %115, ptr %14, align 4, !tbaa !3
  %116 = icmp eq i32 %115, 0
  br i1 %116, label %117, label %145

117:                                              ; preds = %112
  %118 = getelementptr inbounds [1 x %struct.ecc_key], ptr %19, i64 0, i64 0
  %119 = call i32 @wc_ecc_free(ptr noundef %118)
  %120 = getelementptr inbounds [1 x %struct.ecc_key], ptr %19, i64 0, i64 0
  %121 = load ptr, ptr %13, align 8, !tbaa !64
  %122 = call i32 @wc_ecc_init_ex(ptr noundef %120, ptr noundef %121, i32 noundef -2)
  store i32 %122, ptr %14, align 4, !tbaa !3
  %123 = load i32, ptr %14, align 4, !tbaa !3
  %124 = icmp eq i32 %123, 0
  br i1 %124, label %125, label %132

125:                                              ; preds = %117
  %126 = getelementptr inbounds [66 x i8], ptr %20, i64 0, i64 0
  %127 = load i32, ptr %21, align 4, !tbaa !3
  %128 = load ptr, ptr %10, align 8, !tbaa !7
  %129 = load i32, ptr %11, align 4, !tbaa !3
  %130 = getelementptr inbounds [1 x %struct.ecc_key], ptr %19, i64 0, i64 0
  %131 = call i32 @wc_ecc_import_private_key(ptr noundef %126, i32 noundef %127, ptr noundef %128, i32 noundef %129, ptr noundef %130)
  store i32 %131, ptr %14, align 4, !tbaa !3
  br label %132

132:                                              ; preds = %125, %117
  %133 = load i32, ptr %14, align 4, !tbaa !3
  %134 = icmp eq i32 %133, 0
  br i1 %134, label %135, label %142

135:                                              ; preds = %132
  %136 = getelementptr inbounds [1 x %struct.ecc_key], ptr %19, i64 0, i64 0
  %137 = call i32 @wc_ecc_check_key(ptr noundef %136)
  store i32 %137, ptr %14, align 4, !tbaa !3
  %138 = icmp eq i32 %137, 0
  br i1 %138, label %139, label %140

139:                                              ; preds = %135
  store i32 1, ptr %14, align 4, !tbaa !3
  br label %141

140:                                              ; preds = %135
  br label %141

141:                                              ; preds = %140, %139
  br label %142

142:                                              ; preds = %141, %132
  %143 = getelementptr inbounds [66 x i8], ptr %20, i64 0, i64 0
  %144 = load i32, ptr %21, align 4, !tbaa !3
  call void @ForceZero(ptr noundef %143, i32 noundef %144)
  br label %145

145:                                              ; preds = %142, %112
  br label %147

146:                                              ; preds = %103
  br label %147

147:                                              ; preds = %146, %145
  %148 = getelementptr inbounds [1 x %struct.ecc_key], ptr %19, i64 0, i64 0
  %149 = call i32 @wc_ecc_free(ptr noundef %148)
  store i32 0, ptr %15, align 4
  br label %150

150:                                              ; preds = %147, %101
  call void @llvm.lifetime.end.p0(i64 4, ptr %22) #9
  call void @llvm.lifetime.end.p0(i64 4, ptr %21) #9
  call void @llvm.lifetime.end.p0(i64 66, ptr %20) #9
  call void @llvm.lifetime.end.p0(i64 4208, ptr %19) #9
  %151 = load i32, ptr %15, align 4
  switch i32 %151, label %157 [
    i32 0, label %152
  ]

152:                                              ; preds = %150
  br label %154

153:                                              ; preds = %93
  store i32 0, ptr %14, align 4, !tbaa !3
  br label %154

154:                                              ; preds = %153, %152
  br label %155

155:                                              ; preds = %154, %92
  %156 = load i32, ptr %14, align 4, !tbaa !3
  store i32 %156, ptr %7, align 4
  store i32 1, ptr %15, align 4
  br label %157

157:                                              ; preds = %155, %150, %90, %28
  call void @llvm.lifetime.end.p0(i64 4, ptr %14) #9
  %158 = load i32, ptr %7, align 4
  ret i32 %158
}