; Function Attrs: nounwind uwtable
define i32 @wc_CheckPrivateKey(ptr noundef %0, i32 noundef %1, ptr noundef %2, i32 noundef %3, i32 noundef %4, ptr noundef %5) local_unnamed_addr #2 {
  %7 = alloca [1 x %struct.RsaKey], align 16
  %8 = alloca [1 x %struct.RsaKey], align 16
  %9 = alloca i32, align 4
  %10 = alloca [1 x %struct.ecc_key], align 16
  %11 = alloca [66 x i8], align 16
  %12 = alloca i32, align 4
  %13 = alloca i32, align 4
  %14 = icmp eq ptr %0, null
  %15 = icmp eq ptr %2, null
  %or.cond = or i1 %14, %15
  br i1 %or.cond, label %62, label %16

16:                                               ; preds = %6
  switch i32 %4, label %62 [
    i32 654, label %17
    i32 645, label %17
    i32 518, label %40
  ]

17:                                               ; preds = %16, %16
  call void @llvm.lifetime.start.p0(i64 8368, ptr nonnull %7) #22
  call void @llvm.lifetime.start.p0(i64 8368, ptr nonnull %8) #22
  call void @llvm.lifetime.start.p0(i64 4, ptr nonnull %9) #22
  store i32 0, ptr %9, align 4, !tbaa !22
  %18 = call i32 @wc_InitRsaKey(ptr noundef nonnull %7, ptr noundef %5) #22
  %19 = icmp slt i32 %18, 0
  br i1 %19, label %.thread, label %20

20:                                               ; preds = %17
  %21 = call i32 @wc_InitRsaKey(ptr noundef nonnull %8, ptr noundef %5) #22
  %22 = icmp slt i32 %21, 0
  br i1 %22, label %23, label %25

23:                                               ; preds = %20
  %24 = call i32 @wc_FreeRsaKey(ptr noundef nonnull %7) #22
  br label %.thread

25:                                               ; preds = %20
  %26 = call fastcc i32 @_RsaPrivateKeyDecode(ptr noundef nonnull %0, ptr noundef nonnull %9, ptr noundef nonnull %7, ptr noundef null, i32 noundef %1)
  %27 = icmp eq i32 %26, 0
  br i1 %27, label %28, label %37

28:                                               ; preds = %25
  store i32 0, ptr %9, align 4, !tbaa !22
  %29 = call i32 @wc_RsaPublicKeyDecode(ptr noundef nonnull %2, ptr noundef nonnull %9, ptr noundef nonnull %8, i32 noundef %3)
  %30 = icmp eq i32 %29, 0
  br i1 %30, label %31, label %37

31:                                               ; preds = %28
  %32 = call i32 @sp_cmp(ptr noundef nonnull %7, ptr noundef nonnull %8) #22
  %.not = icmp eq i32 %32, 0
  br i1 %.not, label %33, label %37

33:                                               ; preds = %31
  %34 = getelementptr inbounds nuw i8, ptr %7, i64 1040
  %35 = getelementptr inbounds nuw i8, ptr %8, i64 1040
  %36 = call i32 @sp_cmp(ptr noundef nonnull %34, ptr noundef nonnull %35) #22
  %.not45 = icmp eq i32 %36, 0
  %spec.select = select i1 %.not45, i32 1, i32 -120
  br label %37

.thread:                                          ; preds = %23, %17
  %.132.ph = phi i32 [ %18, %17 ], [ %21, %23 ]
  call void @llvm.lifetime.end.p0(i64 4, ptr nonnull %9) #22
  call void @llvm.lifetime.end.p0(i64 8368, ptr nonnull %8) #22
  call void @llvm.lifetime.end.p0(i64 8368, ptr nonnull %7) #22
  br label %62

37:                                               ; preds = %25, %28, %31, %33
  %.130 = phi i32 [ %29, %28 ], [ %26, %25 ], [ -120, %31 ], [ %spec.select, %33 ]
  %38 = call i32 @wc_FreeRsaKey(ptr noundef nonnull %8) #22
  %39 = call i32 @wc_FreeRsaKey(ptr noundef nonnull %7) #22
  call void @llvm.lifetime.end.p0(i64 4, ptr nonnull %9) #22
  call void @llvm.lifetime.end.p0(i64 8368, ptr nonnull %8) #22
  call void @llvm.lifetime.end.p0(i64 8368, ptr nonnull %7) #22
  br label %62

40:                                               ; preds = %16
  call void @llvm.lifetime.start.p0(i64 4208, ptr nonnull %10) #22
  call void @llvm.lifetime.start.p0(i64 66, ptr nonnull %11) #22
  call void @llvm.lifetime.start.p0(i64 4, ptr nonnull %12) #22
  store i32 66, ptr %12, align 4, !tbaa !22
  call void @llvm.lifetime.start.p0(i64 4, ptr nonnull %13) #22
  store i32 0, ptr %13, align 4, !tbaa !22
  %41 = call i32 @wc_ecc_init_ex(ptr noundef nonnull %10, ptr noundef %5, i32 noundef -2) #22
  %42 = icmp sgt i32 %41, -1
  br i1 %42, label %43, label %61

43:                                               ; preds = %40
  %44 = call i32 @wc_EccPrivateKeyDecode(ptr noundef nonnull %0, ptr noundef nonnull %13, ptr noundef nonnull %10, i32 noundef %1)
  %45 = icmp eq i32 %44, 0
  br i1 %45, label %46, label %.thread51

46:                                               ; preds = %43
  %47 = call i32 @wc_ecc_export_private_only(ptr noundef nonnull %10, ptr noundef nonnull %11, ptr noundef nonnull %12) #22
  %48 = icmp eq i32 %47, 0
  br i1 %48, label %49, label %.thread51

49:                                               ; preds = %46
  %50 = call i32 @wc_ecc_free(ptr noundef nonnull %10) #22
  %51 = call i32 @wc_ecc_init_ex(ptr noundef nonnull %10, ptr noundef %5, i32 noundef -2) #22
  %52 = icmp eq i32 %51, 0
  br i1 %52, label %53, label %.thread49

53:                                               ; preds = %49
  %54 = load i32, ptr %12, align 4, !tbaa !22
  %55 = call i32 @wc_ecc_import_private_key(ptr noundef nonnull %11, i32 noundef %54, ptr noundef nonnull %2, i32 noundef %3, ptr noundef nonnull %10) #22
  %56 = icmp eq i32 %55, 0
  br i1 %56, label %57, label %.thread49

57:                                               ; preds = %53
  %58 = call i32 @wc_ecc_check_key(ptr noundef nonnull %10) #22
  %spec.store.select = call i32 @llvm.umax.i32(i32 %58, i32 1)
  br label %.thread49

.thread49:                                        ; preds = %49, %57, %53
  %.5 = phi i32 [ %spec.store.select, %57 ], [ %55, %53 ], [ %51, %49 ]
  %59 = load i32, ptr %12, align 4, !tbaa !22
  call fastcc void @ForceZero(ptr noundef %11, i32 noundef %59)
  br label %.thread51

.thread51:                                        ; preds = %.thread49, %46, %43
  %.6 = phi i32 [ %.5, %.thread49 ], [ %47, %46 ], [ %44, %43 ]
  %60 = call i32 @wc_ecc_free(ptr noundef nonnull %10) #22
  call void @llvm.lifetime.end.p0(i64 4, ptr nonnull %13) #22
  call void @llvm.lifetime.end.p0(i64 4, ptr nonnull %12) #22
  call void @llvm.lifetime.end.p0(i64 66, ptr nonnull %11) #22
  call void @llvm.lifetime.end.p0(i64 4208, ptr nonnull %10) #22
  br label %62

61:                                               ; preds = %40
  call void @llvm.lifetime.end.p0(i64 4, ptr nonnull %13) #22
  call void @llvm.lifetime.end.p0(i64 4, ptr nonnull %12) #22
  call void @llvm.lifetime.end.p0(i64 66, ptr nonnull %11) #22
  call void @llvm.lifetime.end.p0(i64 4208, ptr nonnull %10) #22
  br label %62

62:                                               ; preds = %16, %37, %.thread51, %61, %.thread, %6
  %.031 = phi i32 [ %41, %61 ], [ -173, %6 ], [ %.132.ph, %.thread ], [ %.130, %37 ], [ 0, %16 ], [ %.6, %.thread51 ]
  ret i32 %.031
}